; Function Attrs: mustprogress nounwind uwtable
define hidden void @_ZN21G1RegionToSpaceMapper14fire_on_commitEjmb(ptr nocapture noundef nonnull readonly align 8 dereferenceable(129) %0, i32 noundef %1, i64 noundef %2, i1 noundef zeroext %3) local_unnamed_addr #0 align 2 {
  %5 = getelementptr inbounds i8, ptr %0, i64 8
  %6 = load ptr, ptr %5, align 8
  %.not = icmp eq ptr %6, null
  br i1 %.not, label %10, label %7

7:                                                ; preds = %4
  %8 = load ptr, ptr %6, align 8
  %9 = load ptr, ptr %8, align 8
  tail call void %9(ptr noundef nonnull align 8 dereferenceable(8) %6, i32 noundef %1, i64 noundef %2, i1 noundef zeroext %3) #8
  br label %10

10:                                               ; preds = %7, %4
  ret void
}